; Function Attrs: mustprogress uwtable
define noundef range(i32 0, 2) i32 @_ZN12duckdb_miniz28tdefl_compress_mem_to_outputEPKvmPFiS1_iPvES2_i(ptr noundef %0, i64 noundef %1, ptr noundef %2, ptr noundef %3, i32 noundef %4) local_unnamed_addr #8 {
  %6 = alloca i64, align 8
  %7 = icmp eq i64 %1, 0
  %8 = icmp ne ptr %0, null
  %or.cond = or i1 %8, %7
  %9 = icmp ne ptr %2, null
  %or.cond3 = and i1 %or.cond, %9
  br i1 %or.cond3, label %10, label %57

10:                                               ; preds = %5
  %11 = tail call noalias dereferenceable_or_null(319352) ptr @malloc(i64 noundef 319352) #26
  %.not = icmp eq ptr %11, null
  br i1 %.not, label %57, label %12

12:                                               ; preds = %10
  store ptr %2, ptr %11, align 8, !tbaa !46
  %13 = getelementptr inbounds nuw i8, ptr %11, i64 8
  store ptr %3, ptr %13, align 8, !tbaa !47
  %14 = getelementptr inbounds nuw i8, ptr %11, i64 16
  store i32 %4, ptr %14, align 8, !tbaa !27
  %15 = and i32 %4, 4095
  %16 = trunc nuw nsw i32 %15 to i16
  %.lhs.trunc.i = add nuw nsw i16 %16, 2
  %17 = udiv i16 %.lhs.trunc.i, 3
  %narrow.i = add nuw nsw i16 %17, 1
  %18 = zext nneg i16 %narrow.i to i32
  %19 = getelementptr inbounds nuw i8, ptr %11, i64 20
  store i32 %18, ptr %19, align 4, !tbaa !10
  %20 = lshr i32 %4, 14
  %.lobit.i = and i32 %20, 1
  %21 = getelementptr inbounds nuw i8, ptr %11, i64 28
  store i32 %.lobit.i, ptr %21, align 4, !tbaa !32
  %22 = lshr i32 %15, 2
  %23 = trunc nuw nsw i32 %22 to i16
  %.lhs.trunc51.i = add nuw nsw i16 %23, 2
  %24 = udiv i16 %.lhs.trunc51.i, 3
  %narrow53.i = add nuw nsw i16 %24, 1
  %25 = zext nneg i16 %narrow53.i to i32
  %26 = getelementptr inbounds nuw i8, ptr %11, i64 24
  store i32 %25, ptr %26, align 4, !tbaa !10
  %27 = and i32 %4, 32768
  %.not.i = icmp eq i32 %27, 0
  br i1 %.not.i, label %28, label %30

28:                                               ; preds = %12
  %29 = getelementptr inbounds nuw i8, ptr %11, i64 168618
  tail call void @llvm.memset.p0.i64(ptr noundef nonnull align 2 dereferenceable(65536) %29, i8 0, i64 65536, i1 false)
  br label %30

30:                                               ; preds = %28, %12
  %31 = getelementptr inbounds nuw i8, ptr %11, i64 84
  %32 = getelementptr inbounds nuw i8, ptr %11, i64 44
  store i32 0, ptr %32, align 4, !tbaa !33
  %33 = getelementptr inbounds nuw i8, ptr %11, i64 40
  store i32 0, ptr %33, align 8, !tbaa !34
  %34 = getelementptr inbounds nuw i8, ptr %11, i64 36
  store i32 0, ptr %34, align 4, !tbaa !35
  %35 = getelementptr inbounds nuw i8, ptr %11, i64 112
  %36 = getelementptr inbounds nuw i8, ptr %11, i64 37546
  %37 = getelementptr inbounds nuw i8, ptr %11, i64 37547
  %38 = getelementptr inbounds nuw i8, ptr %11, i64 48
  tail call void @llvm.memset.p0.i64(ptr noundef nonnull align 4 dereferenceable(16) %31, i8 0, i64 16, i1 false)
  tail call void @llvm.memset.p0.i64(ptr noundef nonnull align 8 dereferenceable(20) %35, i8 0, i64 20, i1 false)
  store ptr %37, ptr %38, align 8, !tbaa !36
  %39 = getelementptr inbounds nuw i8, ptr %11, i64 56
  store ptr %36, ptr %39, align 8, !tbaa !37
  %40 = getelementptr inbounds nuw i8, ptr %11, i64 80
  store i32 8, ptr %40, align 8, !tbaa !38
  %41 = getelementptr inbounds nuw i8, ptr %11, i64 234154
  %42 = getelementptr inbounds nuw i8, ptr %11, i64 64
  store ptr %41, ptr %42, align 8, !tbaa !39
  %43 = getelementptr inbounds nuw i8, ptr %11, i64 72
  store ptr %41, ptr %43, align 8, !tbaa !40
  %44 = getelementptr inbounds nuw i8, ptr %11, i64 132
  store i32 0, ptr %44, align 4, !tbaa !41
  %45 = getelementptr inbounds nuw i8, ptr %11, i64 108
  store i32 0, ptr %45, align 4, !tbaa !42
  %46 = getelementptr inbounds nuw i8, ptr %11, i64 104
  store i32 0, ptr %46, align 8, !tbaa !43
  %47 = getelementptr inbounds nuw i8, ptr %11, i64 100
  store i32 0, ptr %47, align 4, !tbaa !44
  %48 = getelementptr inbounds nuw i8, ptr %11, i64 32
  store i32 1, ptr %48, align 8, !tbaa !45
  %49 = getelementptr inbounds nuw i8, ptr %11, i64 136
  %50 = getelementptr inbounds nuw i8, ptr %11, i64 176
  tail call void @llvm.memset.p0.i64(ptr noundef nonnull align 8 dereferenceable(36) %49, i8 0, i64 36, i1 false)
  tail call void @llvm.memset.p0.i64(ptr noundef nonnull align 8 dereferenceable(24) %50, i8 0, i64 24, i1 false)
  br i1 %.not.i, label %51, label %_ZN12duckdb_miniz10tdefl_initEPNS_16tdefl_compressorEPFiPKviPvES4_i.exit

51:                                               ; preds = %30
  %52 = getelementptr inbounds nuw i8, ptr %11, i64 200
  tail call void @llvm.memset.p0.i64(ptr noundef nonnull align 8 dereferenceable(33025) %52, i8 0, i64 33025, i1 false)
  br label %_ZN12duckdb_miniz10tdefl_initEPNS_16tdefl_compressorEPFiPKviPvES4_i.exit

_ZN12duckdb_miniz10tdefl_initEPNS_16tdefl_compressorEPFiPKviPvES4_i.exit: ; preds = %30, %51
  %53 = getelementptr inbounds nuw i8, ptr %11, i64 33226
  tail call void @llvm.memset.p0.i64(ptr noundef nonnull align 2 dereferenceable(640) %53, i8 0, i64 640, i1 false)
  call void @llvm.lifetime.start.p0(i64 8, ptr nonnull %6)
  store i64 %1, ptr %6, align 8, !tbaa !53
  %54 = call noundef i32 @_ZN12duckdb_miniz14tdefl_compressEPNS_16tdefl_compressorEPKvPmPvS4_NS_11tdefl_flushE(ptr noundef nonnull %11, ptr noundef %0, ptr noundef nonnull %6, ptr noundef null, ptr noundef null, i32 noundef 4)
  call void @llvm.lifetime.end.p0(i64 8, ptr nonnull %6)
  %55 = icmp eq i32 %54, 1
  %56 = zext i1 %55 to i32
  call void @free(ptr noundef nonnull %11) #25
  br label %57

57:                                               ; preds = %10, %5, %_ZN12duckdb_miniz10tdefl_initEPNS_16tdefl_compressorEPFiPKviPvES4_i.exit
  %.0 = phi i32 [ %56, %_ZN12duckdb_miniz10tdefl_initEPNS_16tdefl_compressorEPFiPKviPvES4_i.exit ], [ 0, %5 ], [ 0, %10 ]
  ret i32 %.0
}